target datalayout = "e-m:e-p270:32:32-p271:32:32-p272:64:64-i64:64-i128:128-f80:128-n8:16:32:64-S128"
target triple = "x86_64-pc-linux-gnu"

%struct.ident_t = type { i32, i32, i32, i32, ptr }

@2 = private unnamed_addr constant %struct.ident_t { i32 0, i32 2, i32 0, i32 22, ptr @0 }, align 8

; Function Attrs: mustprogress nounwind uwtable
define void @_ZN5faiss13bitvecs2fvecsEPKhPfmm(ptr noalias noundef %0, ptr noalias noundef %1, i64 noundef %2, i64 noundef %3) #5 {
  %5 = alloca ptr, align 8
  %6 = alloca ptr, align 8
  %7 = alloca i64, align 8
  %8 = alloca i64, align 8
  %9 = alloca i64, align 8
  %10 = alloca i32, align 4
  %11 = alloca i32, align 4
  %12 = call i32 @__kmpc_global_thread_num(ptr @2)
  store ptr %0, ptr %5, align 8, !tbaa !21
  store ptr %1, ptr %6, align 8, !tbaa !19
  store i64 %2, ptr %7, align 8, !tbaa !9
  store i64 %3, ptr %8, align 8, !tbaa !9
  call void @llvm.lifetime.start.p0(i64 8, ptr %9) #7
  %13 = load i64, ptr %7, align 8, !tbaa !9
  %14 = add i64 %13, 7
  %15 = udiv i64 %14, 8
  store i64 %15, ptr %9, align 8, !tbaa !9
  %16 = load i64, ptr %8, align 8, !tbaa !9
  %17 = icmp ugt i64 %16, 100000
  br i1 %17, label %18, label %19

18:                                               ; preds = %4
  call void (ptr, i32, ptr, ...) @__kmpc_fork_call(ptr @2, i32 5, ptr @_ZN5faiss13bitvecs2fvecsEPKhPfmm.omp_outlined, ptr %8, ptr %7, ptr %5, ptr %9, ptr %6)
  br label %20

19:                                               ; preds = %4
  call void @__kmpc_serialized_parallel(ptr @2, i32 %12)
  store i32 %12, ptr %10, align 4, !tbaa !13
  store i32 0, ptr %11, align 4
  call void @_ZN5faiss13bitvecs2fvecsEPKhPfmm.omp_outlined(ptr %10, ptr %11, ptr %8, ptr %7, ptr %5, ptr %9, ptr %6) #7
  call void @__kmpc_end_serialized_parallel(ptr @2, i32 %12)
  br label %20

20:                                               ; preds = %19, %18
  call void @llvm.lifetime.end.p0(i64 8, ptr %9) #7
  ret void
}